target datalayout = "e-m:e-p270:32:32-p271:32:32-p272:64:64-i64:64-i128:128-f80:128-n8:16:32:64-S128"
target triple = "x86_64-pc-linux-gnu"

%struct.SubscriptingRefState = type { i8, ptr, i32, ptr, ptr, ptr, i32, ptr, ptr, ptr, i64, i8, i64, i8 }
%struct.ArraySubWorkspace = type { i32, i16, i16, i8, i8, [6 x i32], [6 x i32] }
%struct.ExprEvalStep = type { i64, ptr, ptr, %union.anon }
%union.anon = type { %struct.anon.23 }
%struct.anon.23 = type { ptr, ptr, i32, i32, ptr, ptr }
%struct.anon.27 = type { ptr, ptr }

; Function Attrs: nounwind uwtable
define internal void @array_subscript_fetch_slice(ptr noundef %0, ptr noundef %1, ptr noundef %2) #0 {
  %4 = alloca ptr, align 8
  %5 = alloca ptr, align 8
  %6 = alloca ptr, align 8
  %7 = alloca ptr, align 8
  %8 = alloca ptr, align 8
  store ptr %0, ptr %4, align 8
  store ptr %1, ptr %5, align 8
  store ptr %2, ptr %6, align 8
  call void @llvm.lifetime.start.p0(i64 8, ptr %7) #6
  %9 = load ptr, ptr %5, align 8
  %10 = getelementptr inbounds nuw %struct.ExprEvalStep, ptr %9, i32 0, i32 3
  %11 = getelementptr inbounds nuw %struct.anon.27, ptr %10, i32 0, i32 1
  %12 = load ptr, ptr %11, align 8
  store ptr %12, ptr %7, align 8
  call void @llvm.lifetime.start.p0(i64 8, ptr %8) #6
  %13 = load ptr, ptr %7, align 8
  %14 = getelementptr inbounds nuw %struct.SubscriptingRefState, ptr %13, i32 0, i32 1
  %15 = load ptr, ptr %14, align 8
  store ptr %15, ptr %8, align 8
  %16 = load ptr, ptr %5, align 8
  %17 = getelementptr inbounds nuw %struct.ExprEvalStep, ptr %16, i32 0, i32 1
  %18 = load ptr, ptr %17, align 8
  %19 = load i64, ptr %18, align 8
  %20 = load ptr, ptr %7, align 8
  %21 = getelementptr inbounds nuw %struct.SubscriptingRefState, ptr %20, i32 0, i32 2
  %22 = load i32, ptr %21, align 8
  %23 = load ptr, ptr %8, align 8
  %24 = getelementptr inbounds nuw %struct.ArraySubWorkspace, ptr %23, i32 0, i32 5
  %25 = getelementptr inbounds [6 x i32], ptr %24, i64 0, i64 0
  %26 = load ptr, ptr %8, align 8
  %27 = getelementptr inbounds nuw %struct.ArraySubWorkspace, ptr %26, i32 0, i32 6
  %28 = getelementptr inbounds [6 x i32], ptr %27, i64 0, i64 0
  %29 = load ptr, ptr %7, align 8
  %30 = getelementptr inbounds nuw %struct.SubscriptingRefState, ptr %29, i32 0, i32 3
  %31 = load ptr, ptr %30, align 8
  %32 = load ptr, ptr %7, align 8
  %33 = getelementptr inbounds nuw %struct.SubscriptingRefState, ptr %32, i32 0, i32 7
  %34 = load ptr, ptr %33, align 8
  %35 = load ptr, ptr %8, align 8
  %36 = getelementptr inbounds nuw %struct.ArraySubWorkspace, ptr %35, i32 0, i32 1
  %37 = load i16, ptr %36, align 4
  %38 = sext i16 %37 to i32
  %39 = load ptr, ptr %8, align 8
  %40 = getelementptr inbounds nuw %struct.ArraySubWorkspace, ptr %39, i32 0, i32 2
  %41 = load i16, ptr %40, align 2
  %42 = sext i16 %41 to i32
  %43 = load ptr, ptr %8, align 8
  %44 = getelementptr inbounds nuw %struct.ArraySubWorkspace, ptr %43, i32 0, i32 3
  %45 = load i8, ptr %44, align 4, !range !4, !noundef !5
  %46 = trunc i8 %45 to i1
  %47 = load ptr, ptr %8, align 8
  %48 = getelementptr inbounds nuw %struct.ArraySubWorkspace, ptr %47, i32 0, i32 4
  %49 = load i8, ptr %48, align 1
  %50 = call i64 @array_get_slice(i64 noundef %19, i32 noundef %22, ptr noundef %25, ptr noundef %28, ptr noundef %31, ptr noundef %34, i32 noundef %38, i32 noundef %42, i1 noundef zeroext %46, i8 noundef signext %49)
  %51 = load ptr, ptr %5, align 8
  %52 = getelementptr inbounds nuw %struct.ExprEvalStep, ptr %51, i32 0, i32 1
  %53 = load ptr, ptr %52, align 8
  store i64 %50, ptr %53, align 8
  call void @llvm.lifetime.end.p0(i64 8, ptr %8) #6
  call void @llvm.lifetime.end.p0(i64 8, ptr %7) #6
  ret void
}