; Function Attrs: nounwind uwtable
define internal void @array_subscript_fetch_slice(ptr readnone captures(none) %0, ptr noundef readonly captures(none) %1, ptr readnone captures(none) %2) #1 {
  %4 = getelementptr inbounds nuw i8, ptr %1, i64 32
  %5 = load ptr, ptr %4, align 8
  %6 = getelementptr inbounds nuw i8, ptr %5, i64 8
  %7 = load ptr, ptr %6, align 8
  %8 = getelementptr inbounds nuw i8, ptr %1, i64 8
  %9 = load ptr, ptr %8, align 8
  %10 = load i64, ptr %9, align 8
  %11 = getelementptr inbounds nuw i8, ptr %5, i64 16
  %12 = load i32, ptr %11, align 8
  %13 = getelementptr inbounds nuw i8, ptr %7, i64 12
  %14 = getelementptr inbounds nuw i8, ptr %7, i64 36
  %15 = getelementptr inbounds nuw i8, ptr %5, i64 24
  %16 = load ptr, ptr %15, align 8
  %17 = getelementptr inbounds nuw i8, ptr %5, i64 56
  %18 = load ptr, ptr %17, align 8
  %19 = getelementptr inbounds nuw i8, ptr %7, i64 4
  %20 = load i16, ptr %19, align 4
  %21 = sext i16 %20 to i32
  %22 = getelementptr inbounds nuw i8, ptr %7, i64 6
  %23 = load i16, ptr %22, align 2
  %24 = sext i16 %23 to i32
  %25 = getelementptr inbounds nuw i8, ptr %7, i64 8
  %26 = load i8, ptr %25, align 4, !range !4, !noundef !5
  %27 = trunc nuw i8 %26 to i1
  %28 = getelementptr inbounds nuw i8, ptr %7, i64 9
  %29 = load i8, ptr %28, align 1
  %30 = tail call i64 @array_get_slice(i64 noundef %10, i32 noundef %12, ptr noundef nonnull %13, ptr noundef nonnull %14, ptr noundef %16, ptr noundef %18, i32 noundef %21, i32 noundef %24, i1 noundef zeroext %27, i8 noundef signext %29) #7
  %31 = load ptr, ptr %8, align 8
  store i64 %30, ptr %31, align 8
  ret void
}